target datalayout = "e-m:e-p270:32:32-p271:32:32-p272:64:64-i64:64-i128:128-f80:128-n8:16:32:64-S128"
target triple = "x86_64-pc-linux-gnu"

%struct.re_pattern_buffer = type { ptr, ptr, ptr, i32, i32, ptr, ptr, i32, i32, i32, i32, i32, i32, i32, i32, i32, ptr, ptr, i32, ptr, i32, ptr, i32, i32, i32, i32, i32, i32, ptr, ptr, [256 x i8], i32, i32, i32, ptr }
%struct._StackType = type { i32, i32, %union.anon.3 }
%union.anon.3 = type { %struct.anon.6 }
%struct.anon.6 = type { ptr, %union.StkPtrType, %union.StkPtrType }
%union.StkPtrType = type { i64 }

; Function Attrs: nounwind uwtable
define internal i32 @mem_is_in_memp(i32 noundef %0, i32 noundef %1, ptr noundef %2) #0 {
  %4 = alloca i32, align 4
  %5 = alloca i32, align 4
  %6 = alloca i32, align 4
  %7 = alloca ptr, align 8
  %8 = alloca i32, align 4
  %9 = alloca i32, align 4
  store i32 %0, ptr %5, align 4, !tbaa !9
  store i32 %1, ptr %6, align 4, !tbaa !9
  store ptr %2, ptr %7, align 8, !tbaa !66
  call void @llvm.lifetime.start.p0(i64 4, ptr %8) #9
  store i32 0, ptr %8, align 4, !tbaa !9
  br label %10

10:                                               ; preds = %24, %3
  %11 = load i32, ptr %8, align 4, !tbaa !9
  %12 = load i32, ptr %6, align 4, !tbaa !9
  %13 = icmp slt i32 %11, %12
  br i1 %13, label %14, label %27

14:                                               ; preds = %10
  %15 = load i32, ptr %5, align 4, !tbaa !9
  %16 = load ptr, ptr %7, align 8, !tbaa !66
  %17 = load i32, ptr %8, align 4, !tbaa !9
  %18 = sext i32 %17 to i64
  %19 = getelementptr inbounds i32, ptr %16, i64 %18
  %20 = load i32, ptr %19, align 4, !tbaa !9
  %21 = icmp eq i32 %15, %20
  br i1 %21, label %22, label %23

22:                                               ; preds = %14
  store i32 1, ptr %4, align 4
  store i32 1, ptr %9, align 4
  br label %28

23:                                               ; preds = %14
  br label %24

24:                                               ; preds = %23
  %25 = load i32, ptr %8, align 4, !tbaa !9
  %26 = add nsw i32 %25, 1
  store i32 %26, ptr %8, align 4, !tbaa !9
  br label %10, !llvm.loop !233

27:                                               ; preds = %10
  store i32 0, ptr %4, align 4
  store i32 1, ptr %9, align 4
  br label %28

28:                                               ; preds = %27, %22
  call void @llvm.lifetime.end.p0(i64 4, ptr %8) #9
  %29 = load i32, ptr %4, align 4
  ret i32 %29
}

; Function Attrs: nounwind uwtable
define internal i32 @backref_match_at_nested_level(ptr noundef %0, ptr noundef %1, ptr noundef %2, i32 noundef %3, i32 noundef %4, i32 noundef %5, i32 noundef %6, ptr noundef %7, ptr noundef %8, ptr noundef %9) #0 {
  %11 = alloca i32, align 4
  %12 = alloca ptr, align 8
  %13 = alloca ptr, align 8
  %14 = alloca ptr, align 8
  %15 = alloca i32, align 4
  %16 = alloca i32, align 4
  %17 = alloca i32, align 4
  %18 = alloca i32, align 4
  %19 = alloca ptr, align 8
  %20 = alloca ptr, align 8
  %21 = alloca ptr, align 8
  %22 = alloca ptr, align 8
  %23 = alloca ptr, align 8
  %24 = alloca ptr, align 8
  %25 = alloca ptr, align 8
  %26 = alloca i32, align 4
  %27 = alloca ptr, align 8
  %28 = alloca i32, align 4
  store ptr %0, ptr %12, align 8, !tbaa !57
  store ptr %1, ptr %13, align 8, !tbaa !116
  store ptr %2, ptr %14, align 8, !tbaa !116
  store i32 %3, ptr %15, align 4, !tbaa !9
  store i32 %4, ptr %16, align 4, !tbaa !9
  store i32 %5, ptr %17, align 4, !tbaa !9
  store i32 %6, ptr %18, align 4, !tbaa !9
  store ptr %7, ptr %19, align 8, !tbaa !66
  store ptr %8, ptr %20, align 8, !tbaa !225
  store ptr %9, ptr %21, align 8, !tbaa !60
  call void @llvm.lifetime.start.p0(i64 8, ptr %22) #9
  call void @llvm.lifetime.start.p0(i64 8, ptr %23) #9
  call void @llvm.lifetime.start.p0(i64 8, ptr %24) #9
  call void @llvm.lifetime.start.p0(i64 8, ptr %25) #9
  store ptr null, ptr %25, align 8, !tbaa !60
  call void @llvm.lifetime.start.p0(i64 4, ptr %26) #9
  call void @llvm.lifetime.start.p0(i64 8, ptr %27) #9
  store i32 0, ptr %26, align 4, !tbaa !9
  %29 = load ptr, ptr %13, align 8, !tbaa !116
  store ptr %29, ptr %27, align 8, !tbaa !116
  %30 = load ptr, ptr %27, align 8, !tbaa !116
  %31 = getelementptr inbounds %struct._StackType, ptr %30, i32 -1
  store ptr %31, ptr %27, align 8, !tbaa !116
  br label %32

32:                                               ; preds = %158, %10
  %33 = load ptr, ptr %27, align 8, !tbaa !116
  %34 = load ptr, ptr %14, align 8, !tbaa !116
  %35 = icmp uge ptr %33, %34
  br i1 %35, label %36, label %161

36:                                               ; preds = %32
  %37 = load ptr, ptr %27, align 8, !tbaa !116
  %38 = getelementptr inbounds nuw %struct._StackType, ptr %37, i32 0, i32 0
  %39 = load i32, ptr %38, align 8, !tbaa !119
  %40 = icmp eq i32 %39, 1040
  br i1 %40, label %41, label %44

41:                                               ; preds = %36
  %42 = load i32, ptr %26, align 4, !tbaa !9
  %43 = add nsw i32 %42, -1
  store i32 %43, ptr %26, align 4, !tbaa !9
  br label %158

44:                                               ; preds = %36
  %45 = load ptr, ptr %27, align 8, !tbaa !116
  %46 = getelementptr inbounds nuw %struct._StackType, ptr %45, i32 0, i32 0
  %47 = load i32, ptr %46, align 8, !tbaa !119
  %48 = icmp eq i32 %47, 1296
  br i1 %48, label %49, label %52

49:                                               ; preds = %44
  %50 = load i32, ptr %26, align 4, !tbaa !9
  %51 = add nsw i32 %50, 1
  store i32 %51, ptr %26, align 4, !tbaa !9
  br label %157

52:                                               ; preds = %44
  %53 = load i32, ptr %26, align 4, !tbaa !9
  %54 = load i32, ptr %17, align 4, !tbaa !9
  %55 = icmp eq i32 %53, %54
  br i1 %55, label %56, label %156

56:                                               ; preds = %52
  %57 = load ptr, ptr %27, align 8, !tbaa !116
  %58 = getelementptr inbounds nuw %struct._StackType, ptr %57, i32 0, i32 0
  %59 = load i32, ptr %58, align 8, !tbaa !119
  %60 = icmp eq i32 %59, 16
  br i1 %60, label %61, label %135

61:                                               ; preds = %56
  %62 = load ptr, ptr %27, align 8, !tbaa !116
  %63 = getelementptr inbounds nuw %struct._StackType, ptr %62, i32 0, i32 1
  %64 = load i32, ptr %63, align 4, !tbaa !138
  %65 = load i32, ptr %18, align 4, !tbaa !9
  %66 = load ptr, ptr %19, align 8, !tbaa !66
  %67 = call i32 @mem_is_in_memp(i32 noundef %64, i32 noundef %65, ptr noundef %66)
  %68 = icmp ne i32 %67, 0
  br i1 %68, label %69, label %134

69:                                               ; preds = %61
  %70 = load ptr, ptr %27, align 8, !tbaa !116
  %71 = getelementptr inbounds nuw %struct._StackType, ptr %70, i32 0, i32 2
  %72 = getelementptr inbounds nuw %struct.anon.6, ptr %71, i32 0, i32 0
  %73 = load ptr, ptr %72, align 8, !tbaa !59
  store ptr %73, ptr %24, align 8, !tbaa !60
  %74 = load ptr, ptr %25, align 8, !tbaa !60
  %75 = icmp ne ptr %74, null
  br i1 %75, label %76, label %133

76:                                               ; preds = %69
  %77 = load ptr, ptr %25, align 8, !tbaa !60
  %78 = load ptr, ptr %24, align 8, !tbaa !60
  %79 = ptrtoint ptr %77 to i64
  %80 = ptrtoint ptr %78 to i64
  %81 = sub i64 %79, %80
  %82 = load ptr, ptr %21, align 8, !tbaa !60
  %83 = load ptr, ptr %20, align 8, !tbaa !225
  %84 = load ptr, ptr %83, align 8, !tbaa !60
  %85 = ptrtoint ptr %82 to i64
  %86 = ptrtoint ptr %84 to i64
  %87 = sub i64 %85, %86
  %88 = icmp sgt i64 %81, %87
  br i1 %88, label %89, label %90

89:                                               ; preds = %76
  store i32 0, ptr %11, align 4
  store i32 1, ptr %28, align 4
  br label %162

90:                                               ; preds = %76
  %91 = load ptr, ptr %24, align 8, !tbaa !60
  store ptr %91, ptr %23, align 8, !tbaa !60
  %92 = load ptr, ptr %20, align 8, !tbaa !225
  %93 = load ptr, ptr %92, align 8, !tbaa !60
  store ptr %93, ptr %22, align 8, !tbaa !60
  %94 = load i32, ptr %15, align 4, !tbaa !9
  %95 = icmp ne i32 %94, 0
  br i1 %95, label %96, label %112

96:                                               ; preds = %90
  %97 = load ptr, ptr %12, align 8, !tbaa !57
  %98 = getelementptr inbounds nuw %struct.re_pattern_buffer, ptr %97, i32 0, i32 17
  %99 = load ptr, ptr %98, align 8, !tbaa !108
  %100 = load i32, ptr %16, align 4, !tbaa !9
  %101 = load ptr, ptr %24, align 8, !tbaa !60
  %102 = load ptr, ptr %25, align 8, !tbaa !60
  %103 = load ptr, ptr %24, align 8, !tbaa !60
  %104 = ptrtoint ptr %102 to i64
  %105 = ptrtoint ptr %103 to i64
  %106 = sub i64 %104, %105
  %107 = trunc i64 %106 to i32
  %108 = call i32 @string_cmp_ic(ptr noundef %99, i32 noundef %100, ptr noundef %101, ptr noundef %22, i32 noundef %107)
  %109 = icmp eq i32 %108, 0
  br i1 %109, label %110, label %111

110:                                              ; preds = %96
  store i32 0, ptr %11, align 4
  store i32 1, ptr %28, align 4
  br label %162

111:                                              ; preds = %96
  br label %130

112:                                              ; preds = %90
  br label %113

113:                                              ; preds = %128, %112
  %114 = load ptr, ptr %23, align 8, !tbaa !60
  %115 = load ptr, ptr %25, align 8, !tbaa !60
  %116 = icmp ult ptr %114, %115
  br i1 %116, label %117, label %129

117:                                              ; preds = %113
  %118 = load ptr, ptr %23, align 8, !tbaa !60
  %119 = getelementptr inbounds nuw i8, ptr %118, i32 1
  store ptr %119, ptr %23, align 8, !tbaa !60
  %120 = load i8, ptr %118, align 1, !tbaa !59
  %121 = zext i8 %120 to i32
  %122 = load ptr, ptr %22, align 8, !tbaa !60
  %123 = getelementptr inbounds nuw i8, ptr %122, i32 1
  store ptr %123, ptr %22, align 8, !tbaa !60
  %124 = load i8, ptr %122, align 1, !tbaa !59
  %125 = zext i8 %124 to i32
  %126 = icmp ne i32 %121, %125
  br i1 %126, label %127, label %128

127:                                              ; preds = %117
  store i32 0, ptr %11, align 4
  store i32 1, ptr %28, align 4
  br label %162

128:                                              ; preds = %117
  br label %113, !llvm.loop !230

129:                                              ; preds = %113
  br label %130

130:                                              ; preds = %129, %111
  %131 = load ptr, ptr %22, align 8, !tbaa !60
  %132 = load ptr, ptr %20, align 8, !tbaa !225
  store ptr %131, ptr %132, align 8, !tbaa !60
  store i32 1, ptr %11, align 4
  store i32 1, ptr %28, align 4
  br label %162

133:                                              ; preds = %69
  br label %134

134:                                              ; preds = %133, %61
  br label %155

135:                                              ; preds = %56
  %136 = load ptr, ptr %27, align 8, !tbaa !116
  %137 = getelementptr inbounds nuw %struct._StackType, ptr %136, i32 0, i32 0
  %138 = load i32, ptr %137, align 8, !tbaa !119
  %139 = icmp eq i32 %138, 32816
  br i1 %139, label %140, label %154

140:                                              ; preds = %135
  %141 = load ptr, ptr %27, align 8, !tbaa !116
  %142 = getelementptr inbounds nuw %struct._StackType, ptr %141, i32 0, i32 1
  %143 = load i32, ptr %142, align 4, !tbaa !138
  %144 = load i32, ptr %18, align 4, !tbaa !9
  %145 = load ptr, ptr %19, align 8, !tbaa !66
  %146 = call i32 @mem_is_in_memp(i32 noundef %143, i32 noundef %144, ptr noundef %145)
  %147 = icmp ne i32 %146, 0
  br i1 %147, label %148, label %153

148:                                              ; preds = %140
  %149 = load ptr, ptr %27, align 8, !tbaa !116
  %150 = getelementptr inbounds nuw %struct._StackType, ptr %149, i32 0, i32 2
  %151 = getelementptr inbounds nuw %struct.anon.6, ptr %150, i32 0, i32 0
  %152 = load ptr, ptr %151, align 8, !tbaa !59
  store ptr %152, ptr %25, align 8, !tbaa !60
  br label %153

153:                                              ; preds = %148, %140
  br label %154

154:                                              ; preds = %153, %135
  br label %155

155:                                              ; preds = %154, %134
  br label %156

156:                                              ; preds = %155, %52
  br label %157

157:                                              ; preds = %156, %49
  br label %158

158:                                              ; preds = %157, %41
  %159 = load ptr, ptr %27, align 8, !tbaa !116
  %160 = getelementptr inbounds %struct._StackType, ptr %159, i32 -1
  store ptr %160, ptr %27, align 8, !tbaa !116
  br label %32, !llvm.loop !231

161:                                              ; preds = %32
  store i32 0, ptr %11, align 4
  store i32 1, ptr %28, align 4
  br label %162

162:                                              ; preds = %161, %130, %127, %110, %89
  call void @llvm.lifetime.end.p0(i64 8, ptr %27) #9
  call void @llvm.lifetime.end.p0(i64 4, ptr %26) #9
  call void @llvm.lifetime.end.p0(i64 8, ptr %25) #9
  call void @llvm.lifetime.end.p0(i64 8, ptr %24) #9
  call void @llvm.lifetime.end.p0(i64 8, ptr %23) #9
  call void @llvm.lifetime.end.p0(i64 8, ptr %22) #9
  %163 = load i32, ptr %11, align 4
  ret i32 %163
}